target datalayout = "e-m:e-p270:32:32-p271:32:32-p272:64:64-i64:64-i128:128-f80:128-n8:16:32:64-S128"
target triple = "x86_64-pc-linux-gnu"

%"struct.nix::Value" = type { i32, %union.anon.0 }
%union.anon.0 = type { %"struct.nix::Value::StringWithContext" }
%"struct.nix::Value::StringWithContext" = type { ptr, ptr }
%"class.std::basic_string_view" = type { i64, ptr }
%"struct.nix::PrintOptions" = type { i8, i8, i8, i8, i64, i64, i64, i64, i64 }
%"struct.nix::Value::ClosureThunk" = type { ptr, ptr }

@.str.143 = private unnamed_addr constant [21 x i8] c"\1B[35;1m\C2\ABthunk\C2\BB\1B[0m\00", align 1

; Function Attrs: mustprogress nounwind uwtable
define linkonce_odr noundef i64 @_ZNSt11char_traitsIcE6lengthEPKc(ptr noundef %0) #4 comdat align 2 {
  %2 = alloca ptr, align 8
  store ptr %0, ptr %2, align 8
  %3 = load ptr, ptr %2, align 8
  %4 = call i64 @strlen(ptr noundef %3) #3
  ret i64 %4
}

; Function Attrs: mustprogress nounwind uwtable
define linkonce_odr noundef i64 @_ZNSt14numeric_limitsImE3maxEv() #4 comdat align 2 {
  ret i64 -1
}

; Function Attrs: mustprogress nounwind uwtable
define linkonce_odr void @_ZNSt17basic_string_viewIcSt11char_traitsIcEEC2EPKc(ptr noundef nonnull align 8 dereferenceable(16) %0, ptr noundef nonnull %1) unnamed_addr #4 comdat align 2 {
  %3 = alloca ptr, align 8
  %4 = alloca ptr, align 8
  store ptr %0, ptr %3, align 8
  store ptr %1, ptr %4, align 8
  %5 = load ptr, ptr %3, align 8
  %6 = getelementptr inbounds %"class.std::basic_string_view", ptr %5, i32 0, i32 0
  %7 = load ptr, ptr %4, align 8
  %8 = call noundef i64 @_ZNSt11char_traitsIcE6lengthEPKc(ptr noundef %7)
  store i64 %8, ptr %6, align 8
  %9 = getelementptr inbounds %"class.std::basic_string_view", ptr %5, i32 0, i32 1
  %10 = load ptr, ptr %4, align 8
  store ptr %10, ptr %9, align 8
  ret void
}

; Function Attrs: mustprogress nounwind uwtable
define linkonce_odr void @_ZN3nix5Value7mkThunkEPNS_3EnvEPNS_4ExprE(ptr noundef nonnull align 8 dereferenceable(24) %0, ptr noundef %1, ptr noundef %2) #4 comdat align 2 {
  %4 = alloca ptr, align 8
  %5 = alloca ptr, align 8
  %6 = alloca ptr, align 8
  store ptr %0, ptr %4, align 8
  store ptr %1, ptr %5, align 8
  store ptr %2, ptr %6, align 8
  %7 = load ptr, ptr %4, align 8
  %8 = getelementptr inbounds %"struct.nix::Value", ptr %7, i32 0, i32 0
  store i32 10, ptr %8, align 8
  %9 = load ptr, ptr %5, align 8
  %10 = getelementptr inbounds %"struct.nix::Value", ptr %7, i32 0, i32 1
  %11 = getelementptr inbounds %"struct.nix::Value::ClosureThunk", ptr %10, i32 0, i32 0
  store ptr %9, ptr %11, align 8
  %12 = load ptr, ptr %6, align 8
  %13 = getelementptr inbounds %"struct.nix::Value", ptr %7, i32 0, i32 1
  %14 = getelementptr inbounds %"struct.nix::Value::ClosureThunk", ptr %13, i32 0, i32 1
  store ptr %12, ptr %14, align 8
  ret void
}

; Function Attrs: mustprogress uwtable
define void @_ZN3nix39ValuePrintingTests_ansiColorsThunk_Test8TestBodyEv(ptr noundef nonnull align 8 dereferenceable(1272) %0) unnamed_addr #5 align 2 {
  %2 = alloca ptr, align 8
  %3 = alloca %"struct.nix::Value", align 8
  %4 = alloca %"struct.nix::Value", align 8
  %5 = alloca %"class.std::basic_string_view", align 8
  %6 = alloca %"struct.nix::PrintOptions", align 8
  store ptr %0, ptr %2, align 8
  %7 = load ptr, ptr %2, align 8
  call void @_ZN3nix5Value7mkThunkEPNS_3EnvEPNS_4ExprE(ptr noundef nonnull align 8 dereferenceable(24) %3, ptr noundef null, ptr noundef null)
  call void @llvm.memcpy.p0.p0.i64(ptr align 8 %4, ptr align 8 %3, i64 24, i1 false)
  call void @_ZNSt17basic_string_viewIcSt11char_traitsIcEEC2EPKc(ptr noundef nonnull align 8 dereferenceable(16) %5, ptr noundef @.str.143) #3
  %8 = getelementptr inbounds %"struct.nix::PrintOptions", ptr %6, i32 0, i32 0
  store i8 1, ptr %8, align 8
  %9 = getelementptr inbounds %"struct.nix::PrintOptions", ptr %6, i32 0, i32 1
  store i8 0, ptr %9, align 1
  %10 = getelementptr inbounds %"struct.nix::PrintOptions", ptr %6, i32 0, i32 2
  store i8 0, ptr %10, align 2
  %11 = getelementptr inbounds %"struct.nix::PrintOptions", ptr %6, i32 0, i32 3
  store i8 1, ptr %11, align 1
  %12 = getelementptr inbounds %"struct.nix::PrintOptions", ptr %6, i32 0, i32 4
  %13 = call noundef i64 @_ZNSt14numeric_limitsImE3maxEv() #3
  store i64 %13, ptr %12, align 8
  %14 = getelementptr inbounds %"struct.nix::PrintOptions", ptr %6, i32 0, i32 5
  %15 = call noundef i64 @_ZNSt14numeric_limitsImE3maxEv() #3
  store i64 %15, ptr %14, align 8
  %16 = getelementptr inbounds %"struct.nix::PrintOptions", ptr %6, i32 0, i32 6
  %17 = call noundef i64 @_ZNSt14numeric_limitsImE3maxEv() #3
  store i64 %17, ptr %16, align 8
  %18 = getelementptr inbounds %"struct.nix::PrintOptions", ptr %6, i32 0, i32 7
  %19 = call noundef i64 @_ZNSt14numeric_limitsImE3maxEv() #3
  store i64 %19, ptr %18, align 8
  %20 = getelementptr inbounds %"struct.nix::PrintOptions", ptr %6, i32 0, i32 8
  store i64 0, ptr %20, align 8
  %21 = getelementptr inbounds { i64, ptr }, ptr %5, i32 0, i32 0
  %22 = load i64, ptr %21, align 8
  %23 = getelementptr inbounds { i64, ptr }, ptr %5, i32 0, i32 1
  %24 = load ptr, ptr %23, align 8
  call void @_ZN3nix18ValuePrintingTests4testIJNS_12PrintOptionsEEEEvNS_5ValueESt17basic_string_viewIcSt11char_traitsIcEEDpT_(ptr noundef nonnull align 8 dereferenceable(1272) %7, ptr noundef byval(%"struct.nix::Value") align 8 %4, i64 %22, ptr %24, ptr noundef byval(%"struct.nix::PrintOptions") align 8 %6)
  ret void
}